target datalayout = "e-m:e-p270:32:32-p271:32:32-p272:64:64-i64:64-i128:128-f80:128-n8:16:32:64-S128"
target triple = "x86_64-pc-linux-gnu"

%union.pthread_mutex_t = type { %struct.__pthread_mutex_s }
%struct.__pthread_mutex_s = type { i32, i32, i32, i32, i32, i16, i16, %struct.__pthread_internal_list }
%struct.__pthread_internal_list = type { ptr, ptr }
%struct.hostent = type { ptr, ptr, i32, i32, ptr }

@hostentLock = internal global %union.pthread_mutex_t zeroinitializer, align 8
@.str = private unnamed_addr constant [29 x i8] c"%s: pthread_mutex_lock(): %m\00", align 1
@__func__.get_host_by_name = private unnamed_addr constant [17 x i8] c"get_host_by_name\00", align 1
@.str.1 = private unnamed_addr constant [31 x i8] c"%s: pthread_mutex_unlock(): %m\00", align 1

; Function Attrs: nounwind uwtable
define internal i32 @copy_hostent(ptr noundef %0, ptr noundef %1, i32 noundef %2) #0 {
  %4 = alloca i32, align 4
  %5 = alloca ptr, align 8
  %6 = alloca ptr, align 8
  %7 = alloca i32, align 4
  %8 = alloca ptr, align 8
  %9 = alloca i32, align 4
  %10 = alloca ptr, align 8
  %11 = alloca ptr, align 8
  %12 = alloca i32, align 4
  store ptr %0, ptr %5, align 8
  store ptr %1, ptr %6, align 8
  store i32 %2, ptr %7, align 4
  call void @llvm.lifetime.start.p0(i64 8, ptr %8) #9
  call void @llvm.lifetime.start.p0(i64 4, ptr %9) #9
  call void @llvm.lifetime.start.p0(i64 8, ptr %10) #9
  call void @llvm.lifetime.start.p0(i64 8, ptr %11) #9
  %13 = load ptr, ptr %6, align 8
  store ptr %13, ptr %8, align 8
  %14 = load i32, ptr %7, align 4
  %15 = sext i32 %14 to i64
  %16 = sub i64 %15, 32
  %17 = trunc i64 %16 to i32
  store i32 %17, ptr %7, align 4
  %18 = icmp slt i32 %17, 0
  br i1 %18, label %19, label %20

19:                                               ; preds = %3
  store i32 -1, ptr %4, align 4
  store i32 1, ptr %12, align 4
  br label %204

20:                                               ; preds = %3
  %21 = load ptr, ptr %5, align 8
  %22 = getelementptr inbounds nuw %struct.hostent, ptr %21, i32 0, i32 2
  %23 = load i32, ptr %22, align 8
  %24 = load ptr, ptr %8, align 8
  %25 = getelementptr inbounds nuw %struct.hostent, ptr %24, i32 0, i32 2
  store i32 %23, ptr %25, align 8
  %26 = load ptr, ptr %5, align 8
  %27 = getelementptr inbounds nuw %struct.hostent, ptr %26, i32 0, i32 3
  %28 = load i32, ptr %27, align 4
  %29 = load ptr, ptr %8, align 8
  %30 = getelementptr inbounds nuw %struct.hostent, ptr %29, i32 0, i32 3
  store i32 %28, ptr %30, align 4
  %31 = load ptr, ptr %6, align 8
  %32 = getelementptr inbounds nuw i8, ptr %31, i64 32
  store ptr %32, ptr %6, align 8
  %33 = load ptr, ptr %6, align 8
  %34 = load ptr, ptr %8, align 8
  %35 = getelementptr inbounds nuw %struct.hostent, ptr %34, i32 0, i32 1
  store ptr %33, ptr %35, align 8
  %36 = load ptr, ptr %5, align 8
  %37 = getelementptr inbounds nuw %struct.hostent, ptr %36, i32 0, i32 1
  %38 = load ptr, ptr %37, align 8
  store ptr %38, ptr %10, align 8
  %39 = load ptr, ptr %8, align 8
  %40 = getelementptr inbounds nuw %struct.hostent, ptr %39, i32 0, i32 1
  %41 = load ptr, ptr %40, align 8
  store ptr %41, ptr %11, align 8
  store i32 0, ptr %9, align 4
  br label %42

42:                                               ; preds = %47, %20
  %43 = load ptr, ptr %10, align 8
  %44 = load ptr, ptr %43, align 8
  %45 = icmp ne ptr %44, null
  br i1 %45, label %46, label %54

46:                                               ; preds = %42
  br label %47

47:                                               ; preds = %46
  %48 = load ptr, ptr %10, align 8
  %49 = getelementptr inbounds nuw ptr, ptr %48, i32 1
  store ptr %49, ptr %10, align 8
  %50 = load ptr, ptr %11, align 8
  %51 = getelementptr inbounds nuw ptr, ptr %50, i32 1
  store ptr %51, ptr %11, align 8
  %52 = load i32, ptr %9, align 4
  %53 = add nsw i32 %52, 1
  store i32 %53, ptr %9, align 4
  br label %42, !llvm.loop !8

54:                                               ; preds = %42
  %55 = load i32, ptr %9, align 4
  %56 = add nsw i32 %55, 1
  store i32 %56, ptr %9, align 4
  %57 = sext i32 %56 to i64
  %58 = mul i64 %57, 8
  %59 = load i32, ptr %7, align 4
  %60 = sext i32 %59 to i64
  %61 = sub i64 %60, %58
  %62 = trunc i64 %61 to i32
  store i32 %62, ptr %7, align 4
  %63 = icmp slt i32 %62, 0
  br i1 %63, label %64, label %65

64:                                               ; preds = %54
  store i32 -1, ptr %4, align 4
  store i32 1, ptr %12, align 4
  br label %204

65:                                               ; preds = %54
  %66 = load ptr, ptr %11, align 8
  %67 = getelementptr inbounds ptr, ptr %66, i64 1
  store ptr %67, ptr %6, align 8
  %68 = load ptr, ptr %6, align 8
  %69 = load ptr, ptr %8, align 8
  %70 = getelementptr inbounds nuw %struct.hostent, ptr %69, i32 0, i32 4
  store ptr %68, ptr %70, align 8
  %71 = load ptr, ptr %5, align 8
  %72 = getelementptr inbounds nuw %struct.hostent, ptr %71, i32 0, i32 4
  %73 = load ptr, ptr %72, align 8
  store ptr %73, ptr %10, align 8
  %74 = load ptr, ptr %8, align 8
  %75 = getelementptr inbounds nuw %struct.hostent, ptr %74, i32 0, i32 4
  %76 = load ptr, ptr %75, align 8
  store ptr %76, ptr %11, align 8
  store i32 0, ptr %9, align 4
  br label %77

77:                                               ; preds = %82, %65
  %78 = load ptr, ptr %10, align 8
  %79 = load ptr, ptr %78, align 8
  %80 = icmp ne ptr %79, null
  br i1 %80, label %81, label %89

81:                                               ; preds = %77
  br label %82

82:                                               ; preds = %81
  %83 = load ptr, ptr %10, align 8
  %84 = getelementptr inbounds nuw ptr, ptr %83, i32 1
  store ptr %84, ptr %10, align 8
  %85 = load ptr, ptr %11, align 8
  %86 = getelementptr inbounds nuw ptr, ptr %85, i32 1
  store ptr %86, ptr %11, align 8
  %87 = load i32, ptr %9, align 4
  %88 = add nsw i32 %87, 1
  store i32 %88, ptr %9, align 4
  br label %77, !llvm.loop !11

89:                                               ; preds = %77
  %90 = load i32, ptr %9, align 4
  %91 = add nsw i32 %90, 1
  store i32 %91, ptr %9, align 4
  %92 = sext i32 %91 to i64
  %93 = mul i64 %92, 8
  %94 = load i32, ptr %7, align 4
  %95 = sext i32 %94 to i64
  %96 = sub i64 %95, %93
  %97 = trunc i64 %96 to i32
  store i32 %97, ptr %7, align 4
  %98 = icmp slt i32 %97, 0
  br i1 %98, label %99, label %100

99:                                               ; preds = %89
  store i32 -1, ptr %4, align 4
  store i32 1, ptr %12, align 4
  br label %204

100:                                              ; preds = %89
  %101 = load ptr, ptr %11, align 8
  %102 = getelementptr inbounds ptr, ptr %101, i64 1
  store ptr %102, ptr %6, align 8
  %103 = load ptr, ptr %5, align 8
  %104 = getelementptr inbounds nuw %struct.hostent, ptr %103, i32 0, i32 4
  %105 = load ptr, ptr %104, align 8
  store ptr %105, ptr %10, align 8
  %106 = load ptr, ptr %8, align 8
  %107 = getelementptr inbounds nuw %struct.hostent, ptr %106, i32 0, i32 4
  %108 = load ptr, ptr %107, align 8
  store ptr %108, ptr %11, align 8
  br label %109

109:                                              ; preds = %137, %100
  %110 = load ptr, ptr %10, align 8
  %111 = load ptr, ptr %110, align 8
  %112 = icmp ne ptr %111, null
  br i1 %112, label %113, label %142

113:                                              ; preds = %109
  %114 = load ptr, ptr %5, align 8
  %115 = getelementptr inbounds nuw %struct.hostent, ptr %114, i32 0, i32 3
  %116 = load i32, ptr %115, align 4
  %117 = load i32, ptr %7, align 4
  %118 = sub nsw i32 %117, %116
  store i32 %118, ptr %7, align 4
  %119 = icmp slt i32 %118, 0
  br i1 %119, label %120, label %121

120:                                              ; preds = %113
  store i32 -1, ptr %4, align 4
  store i32 1, ptr %12, align 4
  br label %204

121:                                              ; preds = %113
  %122 = load ptr, ptr %6, align 8
  %123 = load ptr, ptr %10, align 8
  %124 = load ptr, ptr %123, align 8
  %125 = load ptr, ptr %5, align 8
  %126 = getelementptr inbounds nuw %struct.hostent, ptr %125, i32 0, i32 3
  %127 = load i32, ptr %126, align 4
  %128 = sext i32 %127 to i64
  call void @llvm.memcpy.p0.p0.i64(ptr align 1 %122, ptr align 1 %124, i64 %128, i1 false)
  %129 = load ptr, ptr %6, align 8
  %130 = load ptr, ptr %11, align 8
  store ptr %129, ptr %130, align 8
  %131 = load ptr, ptr %5, align 8
  %132 = getelementptr inbounds nuw %struct.hostent, ptr %131, i32 0, i32 3
  %133 = load i32, ptr %132, align 4
  %134 = load ptr, ptr %6, align 8
  %135 = sext i32 %133 to i64
  %136 = getelementptr inbounds i8, ptr %134, i64 %135
  store ptr %136, ptr %6, align 8
  br label %137

137:                                              ; preds = %121
  %138 = load ptr, ptr %10, align 8
  %139 = getelementptr inbounds nuw ptr, ptr %138, i32 1
  store ptr %139, ptr %10, align 8
  %140 = load ptr, ptr %11, align 8
  %141 = getelementptr inbounds nuw ptr, ptr %140, i32 1
  store ptr %141, ptr %11, align 8
  br label %109, !llvm.loop !12

142:                                              ; preds = %109
  %143 = load ptr, ptr %11, align 8
  store ptr null, ptr %143, align 8
  %144 = load ptr, ptr %5, align 8
  %145 = getelementptr inbounds nuw %struct.hostent, ptr %144, i32 0, i32 1
  %146 = load ptr, ptr %145, align 8
  store ptr %146, ptr %10, align 8
  %147 = load ptr, ptr %8, align 8
  %148 = getelementptr inbounds nuw %struct.hostent, ptr %147, i32 0, i32 1
  %149 = load ptr, ptr %148, align 8
  store ptr %149, ptr %11, align 8
  br label %150

150:                                              ; preds = %175, %142
  %151 = load ptr, ptr %10, align 8
  %152 = load ptr, ptr %151, align 8
  %153 = icmp ne ptr %152, null
  br i1 %153, label %154, label %180

154:                                              ; preds = %150
  %155 = load ptr, ptr %6, align 8
  %156 = load ptr, ptr %10, align 8
  %157 = load ptr, ptr %156, align 8
  %158 = load i32, ptr %7, align 4
  %159 = sext i32 %158 to i64
  %160 = call i64 @strlcpy(ptr noundef %155, ptr noundef %157, i64 noundef %159)
  %161 = trunc i64 %160 to i32
  store i32 %161, ptr %9, align 4
  %162 = load ptr, ptr %6, align 8
  %163 = load ptr, ptr %11, align 8
  store ptr %162, ptr %163, align 8
  %164 = load i32, ptr %9, align 4
  %165 = add nsw i32 %164, 1
  store i32 %165, ptr %9, align 4
  %166 = load ptr, ptr %6, align 8
  %167 = sext i32 %165 to i64
  %168 = getelementptr inbounds i8, ptr %166, i64 %167
  store ptr %168, ptr %6, align 8
  %169 = load i32, ptr %9, align 4
  %170 = load i32, ptr %7, align 4
  %171 = sub nsw i32 %170, %169
  store i32 %171, ptr %7, align 4
  %172 = icmp slt i32 %171, 0
  br i1 %172, label %173, label %174

173:                                              ; preds = %154
  store i32 -1, ptr %4, align 4
  store i32 1, ptr %12, align 4
  br label %204

174:                                              ; preds = %154
  br label %175

175:                                              ; preds = %174
  %176 = load ptr, ptr %10, align 8
  %177 = getelementptr inbounds nuw ptr, ptr %176, i32 1
  store ptr %177, ptr %10, align 8
  %178 = load ptr, ptr %11, align 8
  %179 = getelementptr inbounds nuw ptr, ptr %178, i32 1
  store ptr %179, ptr %11, align 8
  br label %150, !llvm.loop !13

180:                                              ; preds = %150
  %181 = load ptr, ptr %11, align 8
  store ptr null, ptr %181, align 8
  %182 = load ptr, ptr %6, align 8
  %183 = load ptr, ptr %8, align 8
  %184 = getelementptr inbounds nuw %struct.hostent, ptr %183, i32 0, i32 0
  store ptr %182, ptr %184, align 8
  %185 = load ptr, ptr %6, align 8
  %186 = load ptr, ptr %5, align 8
  %187 = getelementptr inbounds nuw %struct.hostent, ptr %186, i32 0, i32 0
  %188 = load ptr, ptr %187, align 8
  %189 = load i32, ptr %7, align 4
  %190 = sext i32 %189 to i64
  %191 = call i64 @strlcpy(ptr noundef %185, ptr noundef %188, i64 noundef %190)
  %192 = trunc i64 %191 to i32
  store i32 %192, ptr %9, align 4
  %193 = load i32, ptr %9, align 4
  %194 = add nsw i32 %193, 1
  store i32 %194, ptr %9, align 4
  %195 = load ptr, ptr %6, align 8
  %196 = sext i32 %194 to i64
  %197 = getelementptr inbounds i8, ptr %195, i64 %196
  store ptr %197, ptr %6, align 8
  %198 = load i32, ptr %9, align 4
  %199 = load i32, ptr %7, align 4
  %200 = sub nsw i32 %199, %198
  store i32 %200, ptr %7, align 4
  %201 = icmp slt i32 %200, 0
  br i1 %201, label %202, label %203

202:                                              ; preds = %180
  store i32 -1, ptr %4, align 4
  store i32 1, ptr %12, align 4
  br label %204

203:                                              ; preds = %180
  store i32 0, ptr %4, align 4
  store i32 1, ptr %12, align 4
  br label %204

204:                                              ; preds = %203, %202, %173, %120, %99, %64, %19
  call void @llvm.lifetime.end.p0(i64 8, ptr %11) #9
  call void @llvm.lifetime.end.p0(i64 8, ptr %10) #9
  call void @llvm.lifetime.end.p0(i64 4, ptr %9) #9
  call void @llvm.lifetime.end.p0(i64 8, ptr %8) #9
  %205 = load i32, ptr %4, align 4
  ret i32 %205
}

; Function Attrs: nounwind uwtable
define dso_local ptr @get_host_by_name(ptr noundef %0, ptr noundef %1, i32 noundef %2, ptr noundef %3) #0 {
  %5 = alloca ptr, align 8
  %6 = alloca ptr, align 8
  %7 = alloca ptr, align 8
  %8 = alloca i32, align 4
  %9 = alloca ptr, align 8
  %10 = alloca ptr, align 8
  %11 = alloca i32, align 4
  %12 = alloca i32, align 4
  %13 = alloca i32, align 4
  %14 = alloca i32, align 4
  store ptr %0, ptr %6, align 8
  store ptr %1, ptr %7, align 8
  store i32 %2, ptr %8, align 4
  store ptr %3, ptr %9, align 8
  call void @llvm.lifetime.start.p0(i64 8, ptr %10) #9
  call void @llvm.lifetime.start.p0(i64 4, ptr %11) #9
  store i32 0, ptr %11, align 4
  br label %15

15:                                               ; preds = %4
  call void @llvm.lifetime.start.p0(i64 4, ptr %12) #9
  %16 = call i32 @pthread_mutex_lock(ptr noundef @hostentLock) #9
  store i32 %16, ptr %12, align 4
  %17 = load i32, ptr %12, align 4
  %18 = icmp ne i32 %17, 0
  br i1 %18, label %19, label %22

19:                                               ; preds = %15
  %20 = load i32, ptr %12, align 4
  %21 = call ptr @__errno_location() #10
  store i32 %20, ptr %21, align 4
  call void (ptr, ...) @fatal_abort(ptr noundef @.str, ptr noundef @__func__.get_host_by_name) #11
  unreachable

22:                                               ; preds = %15
  call void @llvm.lifetime.end.p0(i64 4, ptr %12) #9
  br label %23

23:                                               ; preds = %22
  br label %24

24:                                               ; preds = %23
  %25 = load ptr, ptr %6, align 8
  %26 = call ptr @gethostbyname(ptr noundef %25)
  store ptr %26, ptr %10, align 8
  %27 = icmp ne ptr %26, null
  br i1 %27, label %28, label %33

28:                                               ; preds = %24
  %29 = load ptr, ptr %10, align 8
  %30 = load ptr, ptr %7, align 8
  %31 = load i32, ptr %8, align 4
  %32 = call i32 @copy_hostent(ptr noundef %29, ptr noundef %30, i32 noundef %31)
  store i32 %32, ptr %11, align 4
  br label %33

33:                                               ; preds = %28, %24
  %34 = load ptr, ptr %9, align 8
  %35 = icmp ne ptr %34, null
  br i1 %35, label %36, label %40

36:                                               ; preds = %33
  %37 = call ptr @__h_errno_location() #10
  %38 = load i32, ptr %37, align 4
  %39 = load ptr, ptr %9, align 8
  store i32 %38, ptr %39, align 4
  br label %40

40:                                               ; preds = %36, %33
  br label %41

41:                                               ; preds = %40
  call void @llvm.lifetime.start.p0(i64 4, ptr %13) #9
  %42 = call i32 @pthread_mutex_unlock(ptr noundef @hostentLock) #9
  store i32 %42, ptr %13, align 4
  %43 = load i32, ptr %13, align 4
  %44 = icmp ne i32 %43, 0
  br i1 %44, label %45, label %48

45:                                               ; preds = %41
  %46 = load i32, ptr %13, align 4
  %47 = call ptr @__errno_location() #10
  store i32 %46, ptr %47, align 4
  call void (ptr, ...) @fatal_abort(ptr noundef @.str.1, ptr noundef @__func__.get_host_by_name) #11
  unreachable

48:                                               ; preds = %41
  call void @llvm.lifetime.end.p0(i64 4, ptr %13) #9
  br label %49

49:                                               ; preds = %48
  br label %50

50:                                               ; preds = %49
  %51 = load i32, ptr %11, align 4
  %52 = icmp slt i32 %51, 0
  br i1 %52, label %53, label %55

53:                                               ; preds = %50
  %54 = call ptr @__errno_location() #10
  store i32 34, ptr %54, align 4
  store ptr null, ptr %5, align 8
  store i32 1, ptr %14, align 4
  br label %63

55:                                               ; preds = %50
  %56 = load ptr, ptr %10, align 8
  %57 = icmp ne ptr %56, null
  br i1 %57, label %58, label %60

58:                                               ; preds = %55
  %59 = load ptr, ptr %7, align 8
  br label %61

60:                                               ; preds = %55
  br label %61

61:                                               ; preds = %60, %58
  %62 = phi ptr [ %59, %58 ], [ null, %60 ]
  store ptr %62, ptr %5, align 8
  store i32 1, ptr %14, align 4
  br label %63

63:                                               ; preds = %61, %53
  call void @llvm.lifetime.end.p0(i64 4, ptr %11) #9
  call void @llvm.lifetime.end.p0(i64 8, ptr %10) #9
  %64 = load ptr, ptr %5, align 8
  ret ptr %64
}