; Function Attrs: nounwind uwtable
define dso_local noundef ptr @get_host_by_name(ptr noundef %0, ptr noundef %1, i32 noundef %2, ptr noundef writeonly captures(address_is_null) %3) local_unnamed_addr #0 {
  %5 = tail call i32 @pthread_mutex_lock(ptr noundef nonnull @hostentLock) #14
  %.not = icmp eq i32 %5, 0
  br i1 %.not, label %8, label %6

6:                                                ; preds = %4
  %7 = tail call ptr @__errno_location() #15
  store i32 %5, ptr %7, align 4
  tail call void (ptr, ...) @fatal_abort(ptr noundef nonnull @.str, ptr noundef nonnull @__func__.get_host_by_name) #16
  unreachable

8:                                                ; preds = %4
  %9 = tail call ptr @gethostbyname(ptr noundef %0) #14
  %.not18 = icmp eq ptr %9, null
  br i1 %.not18, label %copy_hostent.exit, label %10

10:                                               ; preds = %8
  %11 = add i32 %2, -32
  %12 = icmp slt i32 %11, 0
  br i1 %12, label %copy_hostent.exit, label %13

13:                                               ; preds = %10
  %14 = getelementptr inbounds nuw i8, ptr %9, i64 16
  %15 = load i32, ptr %14, align 8
  %16 = getelementptr inbounds nuw i8, ptr %1, i64 16
  store i32 %15, ptr %16, align 8
  %17 = getelementptr inbounds nuw i8, ptr %9, i64 20
  %18 = load i32, ptr %17, align 4
  %19 = getelementptr inbounds nuw i8, ptr %1, i64 20
  store i32 %18, ptr %19, align 4
  %20 = getelementptr inbounds nuw i8, ptr %1, i64 32
  %21 = getelementptr inbounds nuw i8, ptr %1, i64 8
  store ptr %20, ptr %21, align 8
  %22 = getelementptr inbounds nuw i8, ptr %9, i64 8
  %23 = load ptr, ptr %22, align 8
  %24 = load ptr, ptr %23, align 8
  %.not99.i = icmp eq ptr %24, null
  br i1 %.not99.i, label %._crit_edge.i, label %.lr.ph.i

.lr.ph.i:                                         ; preds = %13, %.lr.ph.i
  %.0102.i = phi ptr [ %26, %.lr.ph.i ], [ %20, %13 ]
  %.068101.i = phi ptr [ %25, %.lr.ph.i ], [ %23, %13 ]
  %.072100.i = phi i32 [ %27, %.lr.ph.i ], [ 0, %13 ]
  %25 = getelementptr inbounds nuw i8, ptr %.068101.i, i64 8
  %26 = getelementptr inbounds nuw i8, ptr %.0102.i, i64 8
  %27 = add nuw nsw i32 %.072100.i, 1
  %28 = load ptr, ptr %25, align 8
  %.not.i = icmp eq ptr %28, null
  br i1 %.not.i, label %._crit_edge.loopexit.i, label %.lr.ph.i, !llvm.loop !8

._crit_edge.loopexit.i:                           ; preds = %.lr.ph.i
  %.neg135.i = xor i32 %.072100.i, -1
  %29 = shl i32 %.neg135.i, 3
  br label %._crit_edge.i

._crit_edge.i:                                    ; preds = %._crit_edge.loopexit.i, %13
  %.072.lcssa.neg.i = phi i32 [ 0, %13 ], [ %29, %._crit_edge.loopexit.i ]
  %.0.lcssa.i = phi ptr [ %20, %13 ], [ %26, %._crit_edge.loopexit.i ]
  %.neg89.i = add i32 %2, -40
  %30 = add i32 %.neg89.i, %.072.lcssa.neg.i
  %31 = icmp slt i32 %30, 0
  br i1 %31, label %copy_hostent.exit, label %32

32:                                               ; preds = %._crit_edge.i
  %33 = getelementptr inbounds nuw i8, ptr %.0.lcssa.i, i64 8
  %34 = getelementptr inbounds nuw i8, ptr %1, i64 24
  store ptr %33, ptr %34, align 8
  %35 = getelementptr inbounds nuw i8, ptr %9, i64 24
  %36 = load ptr, ptr %35, align 8
  %37 = load ptr, ptr %36, align 8
  %.not86104.i = icmp eq ptr %37, null
  br i1 %.not86104.i, label %._crit_edge110.thread.i, label %.lr.ph109.i

.lr.ph109.i:                                      ; preds = %32, %.lr.ph109.i
  %.1107.i = phi ptr [ %39, %.lr.ph109.i ], [ %33, %32 ]
  %.169106.i = phi ptr [ %38, %.lr.ph109.i ], [ %36, %32 ]
  %.173105.i = phi i32 [ %40, %.lr.ph109.i ], [ 0, %32 ]
  %38 = getelementptr inbounds nuw i8, ptr %.169106.i, i64 8
  %39 = getelementptr inbounds nuw i8, ptr %.1107.i, i64 8
  %40 = add nuw nsw i32 %.173105.i, 1
  %41 = load ptr, ptr %38, align 8
  %.not86.i = icmp eq ptr %41, null
  br i1 %.not86.i, label %._crit_edge110.i, label %.lr.ph109.i, !llvm.loop !11

._crit_edge110.i:                                 ; preds = %.lr.ph109.i
  %.neg136.i = xor i32 %.173105.i, -1
  %42 = shl i32 %.neg136.i, 3
  %.neg91.i = add nsw i32 %30, -8
  %43 = add i32 %.neg91.i, %42
  %44 = icmp slt i32 %43, 0
  br i1 %44, label %copy_hostent.exit, label %47

._crit_edge110.thread.i:                          ; preds = %32
  %45 = icmp samesign ult i32 %30, 8
  br i1 %45, label %copy_hostent.exit, label %.thread.i

.thread.i:                                        ; preds = %._crit_edge110.thread.i
  %.neg91145.i = add nsw i32 %30, -8
  %46 = getelementptr inbounds nuw i8, ptr %.0.lcssa.i, i64 16
  br label %._crit_edge120.i

47:                                               ; preds = %._crit_edge110.i
  %48 = getelementptr inbounds nuw i8, ptr %.1107.i, i64 16
  %.pre.i = load i32, ptr %17, align 4
  br label %.lr.ph119.i

.lr.ph119.i:                                      ; preds = %53, %47
  %49 = phi i32 [ %55, %53 ], [ %.pre.i, %47 ]
  %50 = phi ptr [ %60, %53 ], [ %37, %47 ]
  %.2117.i = phi ptr [ %59, %53 ], [ %33, %47 ]
  %.270116.i = phi ptr [ %58, %53 ], [ %36, %47 ]
  %.075115.i = phi i32 [ %51, %53 ], [ %43, %47 ]
  %.077114.i = phi ptr [ %57, %53 ], [ %48, %47 ]
  %51 = sub nsw i32 %.075115.i, %49
  %52 = icmp slt i32 %51, 0
  br i1 %52, label %copy_hostent.exit, label %53

53:                                               ; preds = %.lr.ph119.i
  %54 = sext i32 %49 to i64
  tail call void @llvm.memcpy.p0.p0.i64(ptr align 1 %.077114.i, ptr nonnull align 1 %50, i64 %54, i1 false)
  store ptr %.077114.i, ptr %.2117.i, align 8
  %55 = load i32, ptr %17, align 4
  %56 = sext i32 %55 to i64
  %57 = getelementptr inbounds i8, ptr %.077114.i, i64 %56
  %58 = getelementptr inbounds nuw i8, ptr %.270116.i, i64 8
  %59 = getelementptr inbounds nuw i8, ptr %.2117.i, i64 8
  %60 = load ptr, ptr %58, align 8
  %.not87.i = icmp eq ptr %60, null
  br i1 %.not87.i, label %._crit_edge120.i, label %.lr.ph119.i, !llvm.loop !12

._crit_edge120.i:                                 ; preds = %53, %.thread.i
  %.077.lcssa.i = phi ptr [ %46, %.thread.i ], [ %57, %53 ]
  %.075.lcssa.i = phi i32 [ %.neg91145.i, %.thread.i ], [ %51, %53 ]
  %.2.lcssa.i = phi ptr [ %33, %.thread.i ], [ %59, %53 ]
  store ptr null, ptr %.2.lcssa.i, align 8
  %61 = load ptr, ptr %22, align 8
  %62 = load ptr, ptr %21, align 8
  %63 = load ptr, ptr %61, align 8
  %.not88124.i = icmp eq ptr %63, null
  br i1 %.not88124.i, label %._crit_edge131.i, label %.lr.ph130.i

.lr.ph130.i:                                      ; preds = %._crit_edge120.i, %71
  %64 = phi ptr [ %76, %71 ], [ %63, %._crit_edge120.i ]
  %.3128.i = phi ptr [ %75, %71 ], [ %62, %._crit_edge120.i ]
  %.371127.i = phi ptr [ %74, %71 ], [ %61, %._crit_edge120.i ]
  %.176126.i = phi i32 [ %69, %71 ], [ %.075.lcssa.i, %._crit_edge120.i ]
  %.178125.i = phi ptr [ %73, %71 ], [ %.077.lcssa.i, %._crit_edge120.i ]
  %65 = zext nneg i32 %.176126.i to i64
  %66 = tail call i64 @strlcpy(ptr noundef %.178125.i, ptr noundef nonnull dereferenceable(1) %64, i64 noundef %65) #14
  %67 = trunc i64 %66 to i32
  store ptr %.178125.i, ptr %.3128.i, align 8
  %68 = add nsw i32 %67, 1
  %69 = sub nsw i32 %.176126.i, %68
  %70 = icmp slt i32 %69, 0
  br i1 %70, label %copy_hostent.exit, label %71

71:                                               ; preds = %.lr.ph130.i
  %72 = sext i32 %68 to i64
  %73 = getelementptr inbounds i8, ptr %.178125.i, i64 %72
  %74 = getelementptr inbounds nuw i8, ptr %.371127.i, i64 8
  %75 = getelementptr inbounds nuw i8, ptr %.3128.i, i64 8
  %76 = load ptr, ptr %74, align 8
  %.not88.i = icmp eq ptr %76, null
  br i1 %.not88.i, label %._crit_edge131.i, label %.lr.ph130.i, !llvm.loop !13

._crit_edge131.i:                                 ; preds = %71, %._crit_edge120.i
  %.178.lcssa.i = phi ptr [ %.077.lcssa.i, %._crit_edge120.i ], [ %73, %71 ]
  %.176.lcssa.i = phi i32 [ %.075.lcssa.i, %._crit_edge120.i ], [ %69, %71 ]
  %.3.lcssa.i = phi ptr [ %62, %._crit_edge120.i ], [ %75, %71 ]
  store ptr null, ptr %.3.lcssa.i, align 8
  store ptr %.178.lcssa.i, ptr %1, align 8
  %77 = load ptr, ptr %9, align 8
  %78 = zext nneg i32 %.176.lcssa.i to i64
  %79 = tail call i64 @strlcpy(ptr noundef %.178.lcssa.i, ptr noundef nonnull dereferenceable(1) %77, i64 noundef %78) #14
  %80 = trunc i64 %79 to i32
  %81 = sub i32 %80, %.176.lcssa.i
  %82 = icmp sgt i32 %81, -1
  br label %copy_hostent.exit

copy_hostent.exit:                                ; preds = %.lr.ph119.i, %.lr.ph130.i, %._crit_edge131.i, %._crit_edge110.thread.i, %._crit_edge110.i, %._crit_edge.i, %10, %8
  %.013 = phi i1 [ false, %8 ], [ true, %10 ], [ true, %._crit_edge.i ], [ true, %._crit_edge110.i ], [ %82, %._crit_edge131.i ], [ true, %._crit_edge110.thread.i ], [ true, %.lr.ph130.i ], [ true, %.lr.ph119.i ]
  %.not19 = icmp eq ptr %3, null
  br i1 %.not19, label %86, label %83

83:                                               ; preds = %copy_hostent.exit
  %84 = tail call ptr @__h_errno_location() #15
  %85 = load i32, ptr %84, align 4
  store i32 %85, ptr %3, align 4
  br label %86

86:                                               ; preds = %copy_hostent.exit, %83
  %87 = tail call i32 @pthread_mutex_unlock(ptr noundef nonnull @hostentLock) #14
  %.not20 = icmp eq i32 %87, 0
  br i1 %.not20, label %90, label %88

88:                                               ; preds = %86
  %89 = tail call ptr @__errno_location() #15
  store i32 %87, ptr %89, align 4
  tail call void (ptr, ...) @fatal_abort(ptr noundef nonnull @.str.1, ptr noundef nonnull @__func__.get_host_by_name) #16
  unreachable

90:                                               ; preds = %86
  br i1 %.013, label %91, label %93

91:                                               ; preds = %90
  %92 = tail call ptr @__errno_location() #15
  store i32 34, ptr %92, align 4
  br label %95

93:                                               ; preds = %90
  %94 = select i1 %.not18, ptr null, ptr %1
  br label %95

95:                                               ; preds = %93, %91
  %.0 = phi ptr [ null, %91 ], [ %94, %93 ]
  ret ptr %.0
}